target datalayout = "e-m:e-p270:32:32-p271:32:32-p272:64:64-i64:64-i128:128-f80:128-n8:16:32:64-S128"
target triple = "x86_64-pc-linux-gnu"

; Function Attrs: nounwind uwtable
define internal i32 @php_iptc_get1(ptr noundef %0, i32 noundef %1, ptr noundef %2) #0 {
  %4 = alloca i32, align 4
  %5 = alloca ptr, align 8
  %6 = alloca i32, align 4
  %7 = alloca ptr, align 8
  %8 = alloca i32, align 4
  %9 = alloca i8, align 1
  store ptr %0, ptr %5, align 8
  store i32 %1, ptr %6, align 4
  store ptr %2, ptr %7, align 8
  %10 = load ptr, ptr %5, align 8
  %11 = call i32 @getc(ptr noundef %10)
  store i32 %11, ptr %8, align 4
  %12 = load i32, ptr %8, align 4
  %13 = icmp eq i32 %12, -1
  br i1 %13, label %14, label %15

14:                                               ; preds = %3
  store i32 -1, ptr %4, align 4
  br label %33

15:                                               ; preds = %3
  %16 = load i32, ptr %6, align 4
  %17 = icmp sgt i32 %16, 0
  br i1 %17, label %18, label %22

18:                                               ; preds = %15
  %19 = load i32, ptr %8, align 4
  %20 = trunc i32 %19 to i8
  store i8 %20, ptr %9, align 1
  %21 = call i64 @php_output_write(ptr noundef %9, i64 noundef 1)
  br label %22

22:                                               ; preds = %18, %15
  %23 = load ptr, ptr %7, align 8
  %24 = icmp ne ptr %23, null
  br i1 %24, label %25, label %31

25:                                               ; preds = %22
  %26 = load i32, ptr %8, align 4
  %27 = trunc i32 %26 to i8
  %28 = load ptr, ptr %7, align 8
  %29 = load ptr, ptr %28, align 8
  %30 = getelementptr inbounds i8, ptr %29, i32 1
  store ptr %30, ptr %28, align 8
  store i8 %27, ptr %29, align 1
  br label %31

31:                                               ; preds = %25, %22
  %32 = load i32, ptr %8, align 4
  store i32 %32, ptr %4, align 4
  br label %33

33:                                               ; preds = %31, %14
  %34 = load i32, ptr %4, align 4
  ret i32 %34
}

; Function Attrs: nounwind uwtable
define internal i32 @php_iptc_read_remaining(ptr noundef %0, i32 noundef %1, ptr noundef %2) #0 {
  %4 = alloca ptr, align 8
  %5 = alloca i32, align 4
  %6 = alloca ptr, align 8
  store ptr %0, ptr %4, align 8
  store i32 %1, ptr %5, align 4
  store ptr %2, ptr %6, align 8
  br label %7

7:                                                ; preds = %13, %3
  %8 = load ptr, ptr %4, align 8
  %9 = load i32, ptr %5, align 4
  %10 = load ptr, ptr %6, align 8
  %11 = call i32 @php_iptc_get1(ptr noundef %8, i32 noundef %9, ptr noundef %10)
  %12 = icmp ne i32 %11, -1
  br i1 %12, label %13, label %14

13:                                               ; preds = %7
  br label %7

14:                                               ; preds = %7
  ret i32 217
}