; Function Attrs: nounwind uwtable
define internal fastcc void @php_iptc_read_remaining(ptr nocapture noundef %0, i32 noundef %1, ptr noundef %2) unnamed_addr #0 {
  %4 = alloca i8, align 1
  call void @llvm.lifetime.start.p0(i64 1, ptr nonnull %4)
  %5 = tail call i32 @getc(ptr noundef %0)
  %6 = icmp eq i32 %5, -1
  br i1 %6, label %._crit_edge, label %.lr.ph

.lr.ph:                                           ; preds = %3
  %7 = icmp sgt i32 %1, 0
  %.not.i = icmp eq ptr %2, null
  br i1 %7, label %.lr.ph.split.us, label %.lr.ph.split

.lr.ph.split.us:                                  ; preds = %.lr.ph
  br i1 %.not.i, label %php_iptc_get1.exit.us.us, label %php_iptc_get1.exit.us

php_iptc_get1.exit.us.us:                         ; preds = %.lr.ph.split.us, %php_iptc_get1.exit.us.us
  %8 = phi i32 [ %11, %php_iptc_get1.exit.us.us ], [ %5, %.lr.ph.split.us ]
  %9 = trunc i32 %8 to i8
  store i8 %9, ptr %4, align 1
  %10 = call i64 @php_output_write(ptr noundef nonnull %4, i64 noundef 1) #10
  call void @llvm.lifetime.end.p0(i64 1, ptr nonnull %4)
  call void @llvm.lifetime.start.p0(i64 1, ptr nonnull %4)
  %11 = call i32 @getc(ptr noundef %0)
  %12 = icmp eq i32 %11, -1
  br i1 %12, label %._crit_edge, label %php_iptc_get1.exit.us.us

php_iptc_get1.exit.us:                            ; preds = %.lr.ph.split.us, %php_iptc_get1.exit.us
  %13 = phi i32 [ %18, %php_iptc_get1.exit.us ], [ %5, %.lr.ph.split.us ]
  %14 = trunc i32 %13 to i8
  store i8 %14, ptr %4, align 1
  %15 = call i64 @php_output_write(ptr noundef nonnull %4, i64 noundef 1) #10
  %16 = load ptr, ptr %2, align 8
  %17 = getelementptr inbounds i8, ptr %16, i64 1
  store ptr %17, ptr %2, align 8
  store i8 %14, ptr %16, align 1
  call void @llvm.lifetime.end.p0(i64 1, ptr nonnull %4)
  call void @llvm.lifetime.start.p0(i64 1, ptr nonnull %4)
  %18 = call i32 @getc(ptr noundef %0)
  %19 = icmp eq i32 %18, -1
  br i1 %19, label %._crit_edge, label %php_iptc_get1.exit.us

.lr.ph.split:                                     ; preds = %.lr.ph
  br i1 %.not.i, label %php_iptc_get1.exit.us2, label %php_iptc_get1.exit

php_iptc_get1.exit.us2:                           ; preds = %.lr.ph.split, %php_iptc_get1.exit.us2
  call void @llvm.lifetime.end.p0(i64 1, ptr nonnull %4)
  call void @llvm.lifetime.start.p0(i64 1, ptr nonnull %4)
  %20 = tail call i32 @getc(ptr noundef %0)
  %21 = icmp eq i32 %20, -1
  br i1 %21, label %._crit_edge, label %php_iptc_get1.exit.us2

php_iptc_get1.exit:                               ; preds = %.lr.ph.split, %php_iptc_get1.exit
  %22 = phi i32 [ %26, %php_iptc_get1.exit ], [ %5, %.lr.ph.split ]
  %23 = trunc i32 %22 to i8
  %24 = load ptr, ptr %2, align 8
  %25 = getelementptr inbounds i8, ptr %24, i64 1
  store ptr %25, ptr %2, align 8
  store i8 %23, ptr %24, align 1
  call void @llvm.lifetime.end.p0(i64 1, ptr nonnull %4)
  call void @llvm.lifetime.start.p0(i64 1, ptr nonnull %4)
  %26 = tail call i32 @getc(ptr noundef %0)
  %27 = icmp eq i32 %26, -1
  br i1 %27, label %._crit_edge, label %php_iptc_get1.exit

._crit_edge:                                      ; preds = %php_iptc_get1.exit, %php_iptc_get1.exit.us2, %php_iptc_get1.exit.us, %php_iptc_get1.exit.us.us, %3
  call void @llvm.lifetime.end.p0(i64 1, ptr nonnull %4)
  ret void
}